; Function Attrs: mustprogress uwtable
define hidden range(i32 -16, 1) i32 @mbedtls_mpi_sub_mpi(ptr noundef captures(address) %0, ptr noundef captures(address) %1, ptr noundef captures(address) %2) local_unnamed_addr #1 {
  %4 = load i32, ptr %1, align 8, !tbaa !3
  %5 = load i32, ptr %2, align 8, !tbaa !3
  %6 = mul nsw i32 %5, %4
  %7 = icmp sgt i32 %6, 0
  br i1 %7, label %8, label %47

8:                                                ; preds = %3
  %9 = getelementptr inbounds nuw i8, ptr %1, i64 8
  %10 = load i64, ptr %9, align 8, !tbaa !12
  %.not35.i = icmp eq i64 %10, 0
  br i1 %.not35.i, label %._crit_edge.i, label %.lr.ph.i

.lr.ph.i:                                         ; preds = %8
  %11 = getelementptr inbounds nuw i8, ptr %1, i64 16
  %12 = load ptr, ptr %11, align 8, !tbaa !11
  %invariant.gep.i = getelementptr i8, ptr %12, i64 -8
  br label %13

13:                                               ; preds = %15, %.lr.ph.i
  %.02736.i = phi i64 [ %10, %.lr.ph.i ], [ %16, %15 ]
  %gep.i = getelementptr i64, ptr %invariant.gep.i, i64 %.02736.i
  %14 = load i64, ptr %gep.i, align 8, !tbaa !13
  %.not31.i = icmp eq i64 %14, 0
  br i1 %.not31.i, label %15, label %._crit_edge.i

15:                                               ; preds = %13
  %16 = add i64 %.02736.i, -1
  %.not.i = icmp eq i64 %16, 0
  br i1 %.not.i, label %._crit_edge.i, label %13, !llvm.loop !41

._crit_edge.i:                                    ; preds = %15, %13, %8
  %.027.lcssa.i = phi i64 [ 0, %8 ], [ 0, %15 ], [ %.02736.i, %13 ]
  %17 = getelementptr inbounds nuw i8, ptr %2, i64 8
  %18 = load i64, ptr %17, align 8, !tbaa !12
  %.not3239.i = icmp eq i64 %18, 0
  br i1 %.not3239.i, label %._crit_edge43.i, label %.lr.ph42.i

.lr.ph42.i:                                       ; preds = %._crit_edge.i
  %19 = getelementptr inbounds nuw i8, ptr %2, i64 16
  %20 = load ptr, ptr %19, align 8, !tbaa !11
  %invariant.gep47.i = getelementptr i8, ptr %20, i64 -8
  br label %21

21:                                               ; preds = %23, %.lr.ph42.i
  %.040.i = phi i64 [ %18, %.lr.ph42.i ], [ %24, %23 ]
  %gep48.i = getelementptr i64, ptr %invariant.gep47.i, i64 %.040.i
  %22 = load i64, ptr %gep48.i, align 8, !tbaa !13
  %.not33.i = icmp eq i64 %22, 0
  br i1 %.not33.i, label %23, label %._crit_edge43.i

23:                                               ; preds = %21
  %24 = add i64 %.040.i, -1
  %.not32.i = icmp eq i64 %24, 0
  br i1 %.not32.i, label %._crit_edge43.i, label %21, !llvm.loop !42

._crit_edge43.i:                                  ; preds = %23, %21, %._crit_edge.i
  %.0.lcssa.i = phi i64 [ 0, %._crit_edge.i ], [ 0, %23 ], [ %.040.i, %21 ]
  %25 = or i64 %.0.lcssa.i, %.027.lcssa.i
  %or.cond.i = icmp eq i64 %25, 0
  %26 = icmp ugt i64 %.027.lcssa.i, %.0.lcssa.i
  %or.cond = or i1 %26, %or.cond.i
  br i1 %or.cond, label %.loopexit, label %27

27:                                               ; preds = %._crit_edge43.i
  %28 = icmp ugt i64 %.0.lcssa.i, %.027.lcssa.i
  br i1 %28, label %mbedtls_mpi_cmp_abs.exit, label %.preheader.i

.preheader.i:                                     ; preds = %27
  %29 = getelementptr inbounds nuw i8, ptr %1, i64 16
  %30 = getelementptr inbounds nuw i8, ptr %2, i64 16
  br label %31

31:                                               ; preds = %41, %.preheader.i
  %.1.i = phi i64 [ %34, %41 ], [ %.027.lcssa.i, %.preheader.i ]
  %.not34.i = icmp eq i64 %.1.i, 0
  br i1 %.not34.i, label %.loopexit, label %32

32:                                               ; preds = %31
  %33 = load ptr, ptr %29, align 8, !tbaa !11
  %34 = add i64 %.1.i, -1
  %35 = getelementptr inbounds nuw i64, ptr %33, i64 %34
  %36 = load i64, ptr %35, align 8, !tbaa !13
  %37 = load ptr, ptr %30, align 8, !tbaa !11
  %38 = getelementptr inbounds nuw i64, ptr %37, i64 %34
  %39 = load i64, ptr %38, align 8, !tbaa !13
  %40 = icmp ugt i64 %36, %39
  br i1 %40, label %.loopexit, label %41

41:                                               ; preds = %32
  %42 = icmp ult i64 %36, %39
  br i1 %42, label %mbedtls_mpi_cmp_abs.exit, label %31, !llvm.loop !43

.loopexit:                                        ; preds = %31, %32, %._crit_edge43.i
  %43 = tail call i32 @mbedtls_mpi_sub_abs(ptr noundef %0, ptr noundef nonnull %1, ptr noundef nonnull %2)
  %.not26 = icmp eq i32 %43, 0
  br i1 %.not26, label %.sink.split, label %49

mbedtls_mpi_cmp_abs.exit:                         ; preds = %41, %27
  %44 = tail call i32 @mbedtls_mpi_sub_abs(ptr noundef %0, ptr noundef nonnull %2, ptr noundef nonnull %1)
  %.not25 = icmp eq i32 %44, 0
  br i1 %.not25, label %45, label %49

45:                                               ; preds = %mbedtls_mpi_cmp_abs.exit
  %46 = sub nsw i32 0, %4
  br label %.sink.split

47:                                               ; preds = %3
  %48 = tail call i32 @mbedtls_mpi_add_abs(ptr noundef %0, ptr noundef nonnull %1, ptr noundef nonnull %2)
  %.not = icmp eq i32 %48, 0
  br i1 %.not, label %.sink.split, label %49

.sink.split:                                      ; preds = %47, %.loopexit, %45
  %.sink = phi i32 [ %46, %45 ], [ %4, %.loopexit ], [ %4, %47 ]
  store i32 %.sink, ptr %0, align 8, !tbaa !3
  br label %49

49:                                               ; preds = %.sink.split, %47, %mbedtls_mpi_cmp_abs.exit, %.loopexit
  %.0 = phi i32 [ %43, %.loopexit ], [ %44, %mbedtls_mpi_cmp_abs.exit ], [ %48, %47 ], [ 0, %.sink.split ]
  ret i32 %.0
}